target datalayout = "e-m:e-p270:32:32-p271:32:32-p272:64:64-i64:64-i128:128-f80:128-n8:16:32:64-S128"
target triple = "x86_64-pc-linux-gnu"

@Dau_EnumLift2.pBuffer = internal global [64 x i8] zeroinitializer, align 16

; Function Attrs: nounwind uwtable
define ptr @Dau_EnumLift2(ptr noundef %0, i32 noundef %1) #0 {
  %3 = alloca ptr, align 8
  %4 = alloca i32, align 4
  %5 = alloca ptr, align 8
  store ptr %0, ptr %3, align 8, !tbaa !3
  store i32 %1, ptr %4, align 4, !tbaa !8
  call void @llvm.lifetime.start.p0(i64 8, ptr %5) #8
  store ptr @Dau_EnumLift2.pBuffer, ptr %5, align 8, !tbaa !3
  br label %6

6:                                                ; preds = %34, %2
  %7 = load ptr, ptr %3, align 8, !tbaa !3
  %8 = load i8, ptr %7, align 1, !tbaa !10
  %9 = icmp ne i8 %8, 0
  br i1 %9, label %10, label %39

10:                                               ; preds = %6
  %11 = load ptr, ptr %3, align 8, !tbaa !3
  %12 = load i8, ptr %11, align 1, !tbaa !10
  %13 = sext i8 %12 to i32
  %14 = icmp sge i32 %13, 97
  br i1 %14, label %15, label %26

15:                                               ; preds = %10
  %16 = load ptr, ptr %3, align 8, !tbaa !3
  %17 = load i8, ptr %16, align 1, !tbaa !10
  %18 = sext i8 %17 to i32
  %19 = icmp sle i32 %18, 122
  br i1 %19, label %20, label %26

20:                                               ; preds = %15
  %21 = load ptr, ptr %3, align 8, !tbaa !3
  %22 = load i8, ptr %21, align 1, !tbaa !10
  %23 = sext i8 %22 to i32
  %24 = load i32, ptr %4, align 4, !tbaa !8
  %25 = add nsw i32 %23, %24
  br label %30

26:                                               ; preds = %15, %10
  %27 = load ptr, ptr %3, align 8, !tbaa !3
  %28 = load i8, ptr %27, align 1, !tbaa !10
  %29 = sext i8 %28 to i32
  br label %30

30:                                               ; preds = %26, %20
  %31 = phi i32 [ %25, %20 ], [ %29, %26 ]
  %32 = trunc i32 %31 to i8
  %33 = load ptr, ptr %5, align 8, !tbaa !3
  store i8 %32, ptr %33, align 1, !tbaa !10
  br label %34

34:                                               ; preds = %30
  %35 = load ptr, ptr %5, align 8, !tbaa !3
  %36 = getelementptr inbounds nuw i8, ptr %35, i32 1
  store ptr %36, ptr %5, align 8, !tbaa !3
  %37 = load ptr, ptr %3, align 8, !tbaa !3
  %38 = getelementptr inbounds nuw i8, ptr %37, i32 1
  store ptr %38, ptr %3, align 8, !tbaa !3
  br label %6, !llvm.loop !13

39:                                               ; preds = %6
  %40 = load ptr, ptr %5, align 8, !tbaa !3
  store i8 0, ptr %40, align 1, !tbaa !10
  call void @llvm.lifetime.end.p0(i64 8, ptr %5) #8
  ret ptr @Dau_EnumLift2.pBuffer
}